target datalayout = "e-m:e-p270:32:32-p271:32:32-p272:64:64-i64:64-i128:128-f80:128-n8:16:32:64-S128"
target triple = "x86_64-pc-linux-gnu"

@.str.16 = private unnamed_addr constant [17 x i8] c"b3Error[%s,%d]:\0A\00", align 1
@.str.17 = private unnamed_addr constant [149 x i8] c"generated/home/dtcxzyw/WorkSpace/Projects/compilers/llvm-opt-benchmark/bench/bullet3/bullet3/src/BulletInverseDynamics/details/MultiBodyTreeImpl.cpp\00", align 1
@.str.18 = private unnamed_addr constant [23 x i8] c"unknown joint type %d\0A\00", align 1

; Function Attrs: mustprogress uwtable
define dso_local noundef i32 @_ZNK24btInverseDynamicsBullet313MultiBodyTree13MultiBodyImpl11bodyNumDoFsERKNS_9JointTypeE(ptr noundef nonnull align 8 dereferenceable(400) %0, ptr noundef nonnull align 4 dereferenceable(4) %1) #2 align 2 {
  %3 = alloca i32, align 4
  %4 = alloca ptr, align 8
  %5 = alloca ptr, align 8
  store ptr %0, ptr %4, align 8, !tbaa !12
  store ptr %1, ptr %5, align 8, !tbaa !39
  %6 = load ptr, ptr %5, align 8, !tbaa !39
  %7 = load i32, ptr %6, align 4, !tbaa !74
  switch i32 %7, label %12 [
    i32 0, label %8
    i32 1, label %9
    i32 2, label %9
    i32 3, label %10
    i32 4, label %11
  ]

8:                                                ; preds = %2
  store i32 0, ptr %3, align 4
  br label %17

9:                                                ; preds = %2, %2
  store i32 1, ptr %3, align 4
  br label %17

10:                                               ; preds = %2
  store i32 6, ptr %3, align 4
  br label %17

11:                                               ; preds = %2
  store i32 3, ptr %3, align 4
  br label %17

12:                                               ; preds = %2
  br label %13

13:                                               ; preds = %12
  call void (ptr, ...) @b3OutputErrorMessageVarArgsInternal(ptr noundef @.str.16, ptr noundef @.str.17, i32 noundef 96)
  %14 = load ptr, ptr %5, align 8, !tbaa !39
  %15 = load i32, ptr %14, align 4, !tbaa !74
  call void (ptr, ...) @b3OutputErrorMessageVarArgsInternal(ptr noundef @.str.18, i32 noundef %15)
  br label %16

16:                                               ; preds = %13
  store i32 0, ptr %3, align 4
  br label %17

17:                                               ; preds = %16, %11, %10, %9, %8
  %18 = load i32, ptr %3, align 4
  ret i32 %18
}