; Function Attrs: mustprogress uwtable
define dso_local noundef range(i32 0, 7) i32 @_ZNK24btInverseDynamicsBullet313MultiBodyTree13MultiBodyImpl11bodyNumDoFsERKNS_9JointTypeE(ptr noundef nonnull readnone align 8 captures(none) dereferenceable(400) %0, ptr noundef nonnull readonly align 4 captures(none) dereferenceable(4) %1) local_unnamed_addr #0 align 2 {
  %3 = load i32, ptr %1, align 4, !tbaa !87
  %4 = icmp ult i32 %3, 5
  br i1 %4, label %switch.lookup, label %5

5:                                                ; preds = %2
  tail call void (ptr, ...) @b3OutputErrorMessageVarArgsInternal(ptr noundef nonnull @.str.16, ptr noundef nonnull @.str.17, i32 noundef 96)
  %6 = load i32, ptr %1, align 4, !tbaa !87
  tail call void (ptr, ...) @b3OutputErrorMessageVarArgsInternal(ptr noundef nonnull @.str.18, i32 noundef %6)
  br label %8

switch.lookup:                                    ; preds = %2
  %7 = zext nneg i32 %3 to i64
  %switch.gep = getelementptr inbounds nuw [5 x i32], ptr @switch.table._ZNK24btInverseDynamicsBullet313MultiBodyTree13MultiBodyImpl11bodyNumDoFsERKNS_9JointTypeE, i64 0, i64 %7
  %switch.load = load i32, ptr %switch.gep, align 4
  br label %8

8:                                                ; preds = %switch.lookup, %5
  %.0 = phi i32 [ 0, %5 ], [ %switch.load, %switch.lookup ]
  ret i32 %.0
}